target datalayout = "e-m:e-p270:32:32-p271:32:32-p272:64:64-i64:64-i128:128-f80:128-n8:16:32:64-S128"
target triple = "x86_64-pc-linux-gnu"

%"class.llvm::Twine" = type <{ %"union.llvm::Twine::Child", %"union.llvm::Twine::Child", i8, i8, [6 x i8] }>
%"union.llvm::Twine::Child" = type { %struct.anon }
%struct.anon = type { ptr, i64 }

@.str.14 = private unnamed_addr constant [2 x i8] c"1\00", align 1
@.str.542 = private unnamed_addr constant [14 x i8] c"__AARCH64EL__\00", align 1

; Function Attrs: mustprogress nounwind uwtable
define linkonce_odr hidden void @_ZN4llvm5TwineC2EPKc(ptr noundef nonnull align 8 dereferenceable(34) %0, ptr noundef %1) unnamed_addr #0 comdat align 2 {
  %3 = alloca ptr, align 8
  %4 = alloca ptr, align 8
  store ptr %0, ptr %3, align 8
  store ptr %1, ptr %4, align 8
  %5 = load ptr, ptr %3, align 8
  %6 = getelementptr inbounds nuw %"class.llvm::Twine", ptr %5, i32 0, i32 2
  store i8 1, ptr %6, align 8
  %7 = getelementptr inbounds nuw %"class.llvm::Twine", ptr %5, i32 0, i32 3
  store i8 1, ptr %7, align 1
  %8 = load ptr, ptr %4, align 8
  %9 = getelementptr inbounds i8, ptr %8, i64 0
  %10 = load i8, ptr %9, align 1
  %11 = sext i8 %10 to i32
  %12 = icmp ne i32 %11, 0
  br i1 %12, label %13, label %17

13:                                               ; preds = %2
  %14 = load ptr, ptr %4, align 8
  %15 = getelementptr inbounds nuw %"class.llvm::Twine", ptr %5, i32 0, i32 0
  store ptr %14, ptr %15, align 8
  %16 = getelementptr inbounds nuw %"class.llvm::Twine", ptr %5, i32 0, i32 2
  store i8 3, ptr %16, align 8
  br label %19

17:                                               ; preds = %2
  %18 = getelementptr inbounds nuw %"class.llvm::Twine", ptr %5, i32 0, i32 2
  store i8 1, ptr %18, align 8
  br label %19

19:                                               ; preds = %17, %13
  ret void
}

; Function Attrs: mustprogress nounwind uwtable
define hidden void @_ZNK5clang7targets19AArch64leTargetInfo16getTargetDefinesERKNS_11LangOptionsERNS_12MacroBuilderE(ptr noundef nonnull align 8 dereferenceable(600) %0, ptr noundef nonnull align 8 dereferenceable(841) %1, ptr noundef nonnull align 8 dereferenceable(8) %2) unnamed_addr #0 align 2 {
  %4 = alloca ptr, align 8
  %5 = alloca ptr, align 8
  %6 = alloca ptr, align 8
  %7 = alloca %"class.llvm::Twine", align 8
  %8 = alloca %"class.llvm::Twine", align 8
  store ptr %0, ptr %4, align 8
  store ptr %1, ptr %5, align 8
  store ptr %2, ptr %6, align 8
  %9 = load ptr, ptr %4, align 8
  %10 = load ptr, ptr %6, align 8
  call void @_ZN4llvm5TwineC2EPKc(ptr noundef nonnull align 8 dereferenceable(34) %7, ptr noundef @.str.542)
  call void @_ZN4llvm5TwineC2EPKc(ptr noundef nonnull align 8 dereferenceable(34) %8, ptr noundef @.str.14)
  call void @_ZN5clang12MacroBuilder11defineMacroERKN4llvm5TwineES4_(ptr noundef nonnull align 8 dereferenceable(8) %10, ptr noundef nonnull align 8 dereferenceable(34) %7, ptr noundef nonnull align 8 dereferenceable(34) %8)
  %11 = load ptr, ptr %5, align 8
  %12 = load ptr, ptr %6, align 8
  call void @_ZNK5clang7targets17AArch64TargetInfo16getTargetDefinesERKNS_11LangOptionsERNS_12MacroBuilderE(ptr noundef nonnull align 8 dereferenceable(600) %9, ptr noundef nonnull align 8 dereferenceable(841) %11, ptr noundef nonnull align 8 dereferenceable(8) %12)
  ret void
}